; Function Attrs: nofree norecurse nosync nounwind memory(argmem: readwrite) uwtable
define hidden void @cfl_subsample_lbd_420_4x16_c(ptr nocapture noundef readonly %0, i32 noundef %1, ptr nocapture noundef writeonly %2) #5 {
  %invariant.op.i = add i32 %1, 1
  %4 = shl i32 %1, 1
  %5 = sext i32 %4 to i64
  %6 = sext i32 %1 to i64
  br label %.preheader.us.i

.preheader.us.i:                                  ; preds = %._crit_edge.us.i, %3
  %.026.us.i = phi ptr [ %31, %._crit_edge.us.i ], [ %0, %3 ]
  %.02125.us.i = phi i32 [ %33, %._crit_edge.us.i ], [ 0, %3 ]
  %.02224.us.i = phi ptr [ %32, %._crit_edge.us.i ], [ %2, %3 ]
  br label %7

7:                                                ; preds = %7, %.preheader.us.i
  %8 = phi i1 [ true, %.preheader.us.i ], [ false, %7 ]
  %indvars.iv.i = phi i64 [ 0, %.preheader.us.i ], [ 2, %7 ]
  %9 = add nsw i64 %indvars.iv.i, %6
  %10 = getelementptr inbounds i8, ptr %.026.us.i, i64 %indvars.iv.i
  %11 = load i8, ptr %10, align 1
  %12 = zext i8 %11 to i16
  %13 = or disjoint i64 %indvars.iv.i, 1
  %14 = getelementptr inbounds i8, ptr %.026.us.i, i64 %13
  %15 = load i8, ptr %14, align 1
  %16 = zext i8 %15 to i16
  %17 = add nuw nsw i16 %16, %12
  %18 = getelementptr inbounds i8, ptr %.026.us.i, i64 %9
  %19 = load i8, ptr %18, align 1
  %20 = zext i8 %19 to i16
  %21 = add nuw nsw i16 %17, %20
  %22 = trunc nuw nsw i64 %indvars.iv.i to i32
  %.reass.us.i = add i32 %invariant.op.i, %22
  %23 = sext i32 %.reass.us.i to i64
  %24 = getelementptr inbounds i8, ptr %.026.us.i, i64 %23
  %25 = load i8, ptr %24, align 1
  %26 = zext i8 %25 to i16
  %27 = add nuw nsw i16 %21, %26
  %28 = shl nuw nsw i16 %27, 1
  %29 = lshr exact i64 %indvars.iv.i, 1
  %30 = getelementptr inbounds i16, ptr %.02224.us.i, i64 %29
  store i16 %28, ptr %30, align 2
  br i1 %8, label %7, label %._crit_edge.us.i, !llvm.loop !19

._crit_edge.us.i:                                 ; preds = %7
  %31 = getelementptr inbounds i8, ptr %.026.us.i, i64 %5
  %32 = getelementptr inbounds i8, ptr %.02224.us.i, i64 64
  %33 = add nuw nsw i32 %.02125.us.i, 2
  %34 = icmp ult i32 %.02125.us.i, 14
  br i1 %34, label %.preheader.us.i, label %cfl_luma_subsampling_420_lbd_c.exit, !llvm.loop !20

cfl_luma_subsampling_420_lbd_c.exit:              ; preds = %._crit_edge.us.i
  ret void
}